; Function Attrs: nofree norecurse nosync nounwind memory(readwrite, inaccessiblemem: none) uwtable
define hidden void @ByteGrayToThreeByteBgrConvert(ptr noundef %0, ptr noundef %1, i32 noundef %2, i32 noundef %3, ptr nocapture noundef readonly %4, ptr nocapture noundef readonly %5, ptr nocapture readnone %6, ptr nocapture readnone %7) #1 {
  %9 = getelementptr inbounds i8, ptr %4, i64 32
  %10 = load i32, ptr %9, align 8
  %11 = getelementptr inbounds i8, ptr %5, i64 32
  %12 = load i32, ptr %11, align 8
  %13 = sub i32 %10, %2
  %.neg = mul i32 %2, -3
  %14 = add i32 %12, %.neg
  %15 = sext i32 %13 to i64
  %16 = sext i32 %14 to i64
  br label %17

17:                                               ; preds = %29, %8
  %.024 = phi ptr [ %1, %8 ], [ %33, %29 ]
  %.023 = phi ptr [ %0, %8 ], [ %31, %29 ]
  %.0 = phi i32 [ %3, %8 ], [ %34, %29 ]
  br label %18

18:                                               ; preds = %18, %17
  %.026 = phi i32 [ %2, %17 ], [ %28, %18 ]
  %.125 = phi ptr [ %.024, %17 ], [ %27, %18 ]
  %.1 = phi ptr [ %.023, %17 ], [ %24, %18 ]
  %19 = load i8, ptr %.1, align 1
  store i8 %19, ptr %.125, align 1
  %20 = getelementptr inbounds i8, ptr %.125, i64 1
  store i8 %19, ptr %20, align 1
  %21 = getelementptr inbounds i8, ptr %.125, i64 2
  store i8 %19, ptr %21, align 1
  %22 = ptrtoint ptr %.1 to i64
  %23 = add nsw i64 %22, 1
  %24 = inttoptr i64 %23 to ptr
  %25 = ptrtoint ptr %.125 to i64
  %26 = add nsw i64 %25, 3
  %27 = inttoptr i64 %26 to ptr
  %28 = add i32 %.026, -1
  %.not = icmp eq i32 %28, 0
  br i1 %.not, label %29, label %18, !llvm.loop !11

29:                                               ; preds = %18
  %30 = add nsw i64 %23, %15
  %31 = inttoptr i64 %30 to ptr
  %32 = add nsw i64 %26, %16
  %33 = inttoptr i64 %32 to ptr
  %34 = add i32 %.0, -1
  %.not28 = icmp eq i32 %34, 0
  br i1 %.not28, label %35, label %17, !llvm.loop !12

35:                                               ; preds = %29
  ret void
}